; Listing generated by Microsoft (R) Optimizing Compiler Version 19.38.33133.0 

include listing.inc

INCLUDELIB MSVCRTD
INCLUDELIB OLDNAMES

msvcjmc	SEGMENT
__FDCABEA5_Days Calculator@pch DB 01H
__0D4D46C7_leap_year_definition@cpp DB 01H
__130574F1_stdafx@h DB 01H
__29A091F7_stdafx@cpp DB 01H
msvcjmc	ENDS
PUBLIC	?__empty_global_delete@@YAXPEAX@Z		; __empty_global_delete
PUBLIC	?__empty_global_delete@@YAXPEAX_K@Z		; __empty_global_delete
PUBLIC	?LeapYearDefinition@@YA_NH@Z			; LeapYearDefinition
PUBLIC	__JustMyCode_Default
EXTRN	_RTC_InitBase:PROC
EXTRN	_RTC_Shutdown:PROC
EXTRN	__CheckForDebuggerJustMyCode:PROC
;	COMDAT pdata
pdata	SEGMENT
$pdata$?__empty_global_delete@@YAXPEAX@Z DD imagerel $LN3
	DD	imagerel $LN3+41
	DD	imagerel $unwind$?__empty_global_delete@@YAXPEAX@Z
pdata	ENDS
;	COMDAT pdata
pdata	SEGMENT
$pdata$?__empty_global_delete@@YAXPEAX_K@Z DD imagerel $LN3
	DD	imagerel $LN3+46
	DD	imagerel $unwind$?__empty_global_delete@@YAXPEAX_K@Z
pdata	ENDS
;	COMDAT pdata
pdata	SEGMENT
$pdata$?LeapYearDefinition@@YA_NH@Z DD imagerel $LN7
	DD	imagerel $LN7+150
	DD	imagerel $unwind$?LeapYearDefinition@@YA_NH@Z
pdata	ENDS
;	COMDAT rtc$TMZ
rtc$TMZ	SEGMENT
_RTC_Shutdown.rtc$TMZ DQ FLAT:_RTC_Shutdown
rtc$TMZ	ENDS
;	COMDAT rtc$IMZ
rtc$IMZ	SEGMENT
_RTC_InitBase.rtc$IMZ DQ FLAT:_RTC_InitBase
rtc$IMZ	ENDS
;	COMDAT xdata
xdata	SEGMENT
$unwind$?LeapYearDefinition@@YA_NH@Z DD 025051201H
	DD	010d2312H
	DD	07006001fH
	DD	05005H
xdata	ENDS
;	COMDAT xdata
xdata	SEGMENT
$unwind$?__empty_global_delete@@YAXPEAX_K@Z DD 025051801H
	DD	01132318H
	DD	0700c001dH
	DD	0500bH
xdata	ENDS
;	COMDAT xdata
xdata	SEGMENT
$unwind$?__empty_global_delete@@YAXPEAX@Z DD 025051301H
	DD	010e2313H
	DD	07007001dH
	DD	05006H
xdata	ENDS
; Function compile flags: /Odt
;	COMDAT __JustMyCode_Default
_TEXT	SEGMENT
__JustMyCode_Default PROC				; COMDAT
  00000	c2 00 00	 ret	 0
__JustMyCode_Default ENDP
_TEXT	ENDS
; Function compile flags: /Odtp /RTCsu /ZI
; File C:\Users\user\source\repos\CPO\CPO\leap_year_definition.cpp
;	COMDAT ?LeapYearDefinition@@YA_NH@Z
_TEXT	SEGMENT
tv72 = 192
year$ = 240
?LeapYearDefinition@@YA_NH@Z PROC			; LeapYearDefinition, COMDAT

; 4    : bool LeapYearDefinition(int year){

$LN7:
  00000	89 4c 24 08	 mov	 DWORD PTR [rsp+8], ecx
  00004	55		 push	 rbp
  00005	57		 push	 rdi
  00006	48 81 ec f8 00
	00 00		 sub	 rsp, 248		; 000000f8H
  0000d	48 8d 6c 24 20	 lea	 rbp, QWORD PTR [rsp+32]
  00012	48 8d 0d 00 00
	00 00		 lea	 rcx, OFFSET FLAT:__0D4D46C7_leap_year_definition@cpp
  00019	e8 00 00 00 00	 call	 __CheckForDebuggerJustMyCode

; 5    : 	return ((year % 4 == 0) && (year % 100 != 0)) || ((year % 100 == 0) && (year % 400 == 0));

  0001e	8b 85 f0 00 00
	00		 mov	 eax, DWORD PTR year$[rbp]
  00024	99		 cdq
  00025	83 e2 03	 and	 edx, 3
  00028	03 c2		 add	 eax, edx
  0002a	83 e0 03	 and	 eax, 3
  0002d	2b c2		 sub	 eax, edx
  0002f	85 c0		 test	 eax, eax
  00031	75 14		 jne	 SHORT $LN3@LeapYearDe
  00033	8b 85 f0 00 00
	00		 mov	 eax, DWORD PTR year$[rbp]
  00039	99		 cdq
  0003a	b9 64 00 00 00	 mov	 ecx, 100		; 00000064H
  0003f	f7 f9		 idiv	 ecx
  00041	8b c2		 mov	 eax, edx
  00043	85 c0		 test	 eax, eax
  00045	75 34		 jne	 SHORT $LN5@LeapYearDe
$LN3@LeapYearDe:
  00047	8b 85 f0 00 00
	00		 mov	 eax, DWORD PTR year$[rbp]
  0004d	99		 cdq
  0004e	b9 64 00 00 00	 mov	 ecx, 100		; 00000064H
  00053	f7 f9		 idiv	 ecx
  00055	8b c2		 mov	 eax, edx
  00057	85 c0		 test	 eax, eax
  00059	75 14		 jne	 SHORT $LN4@LeapYearDe
  0005b	8b 85 f0 00 00
	00		 mov	 eax, DWORD PTR year$[rbp]
  00061	99		 cdq
  00062	b9 90 01 00 00	 mov	 ecx, 400		; 00000190H
  00067	f7 f9		 idiv	 ecx
  00069	8b c2		 mov	 eax, edx
  0006b	85 c0		 test	 eax, eax
  0006d	74 0c		 je	 SHORT $LN5@LeapYearDe
$LN4@LeapYearDe:
  0006f	c7 85 c0 00 00
	00 00 00 00 00	 mov	 DWORD PTR tv72[rbp], 0
  00079	eb 0a		 jmp	 SHORT $LN6@LeapYearDe
$LN5@LeapYearDe:
  0007b	c7 85 c0 00 00
	00 01 00 00 00	 mov	 DWORD PTR tv72[rbp], 1
$LN6@LeapYearDe:
  00085	0f b6 85 c0 00
	00 00		 movzx	 eax, BYTE PTR tv72[rbp]

; 6    : }

  0008c	48 8d a5 d8 00
	00 00		 lea	 rsp, QWORD PTR [rbp+216]
  00093	5f		 pop	 rdi
  00094	5d		 pop	 rbp
  00095	c3		 ret	 0
?LeapYearDefinition@@YA_NH@Z ENDP			; LeapYearDefinition
_TEXT	ENDS
; Function compile flags: /Odtp /RTCsu /ZI
; File C:\Users\user\source\repos\CPO\CPO\leap_year_definition.cpp
;	COMDAT ?__empty_global_delete@@YAXPEAX_K@Z
_TEXT	SEGMENT
__formal$ = 224
__formal$ = 232
?__empty_global_delete@@YAXPEAX_K@Z PROC		; __empty_global_delete, COMDAT

$LN3:
  00000	48 89 54 24 10	 mov	 QWORD PTR [rsp+16], rdx
  00005	48 89 4c 24 08	 mov	 QWORD PTR [rsp+8], rcx
  0000a	55		 push	 rbp
  0000b	57		 push	 rdi
  0000c	48 81 ec e8 00
	00 00		 sub	 rsp, 232		; 000000e8H
  00013	48 8d 6c 24 20	 lea	 rbp, QWORD PTR [rsp+32]
  00018	48 8d 0d 00 00
	00 00		 lea	 rcx, OFFSET FLAT:__0D4D46C7_leap_year_definition@cpp
  0001f	e8 00 00 00 00	 call	 __CheckForDebuggerJustMyCode
  00024	48 8d a5 c8 00
	00 00		 lea	 rsp, QWORD PTR [rbp+200]
  0002b	5f		 pop	 rdi
  0002c	5d		 pop	 rbp
  0002d	c3		 ret	 0
?__empty_global_delete@@YAXPEAX_K@Z ENDP		; __empty_global_delete
_TEXT	ENDS
; Function compile flags: /Odtp /RTCsu /ZI
; File C:\Users\user\source\repos\CPO\CPO\leap_year_definition.cpp
;	COMDAT ?__empty_global_delete@@YAXPEAX@Z
_TEXT	SEGMENT
__formal$ = 224
?__empty_global_delete@@YAXPEAX@Z PROC			; __empty_global_delete, COMDAT

$LN3:
  00000	48 89 4c 24 08	 mov	 QWORD PTR [rsp+8], rcx
  00005	55		 push	 rbp
  00006	57		 push	 rdi
  00007	48 81 ec e8 00
	00 00		 sub	 rsp, 232		; 000000e8H
  0000e	48 8d 6c 24 20	 lea	 rbp, QWORD PTR [rsp+32]
  00013	48 8d 0d 00 00
	00 00		 lea	 rcx, OFFSET FLAT:__0D4D46C7_leap_year_definition@cpp
  0001a	e8 00 00 00 00	 call	 __CheckForDebuggerJustMyCode
  0001f	48 8d a5 c8 00
	00 00		 lea	 rsp, QWORD PTR [rbp+200]
  00026	5f		 pop	 rdi
  00027	5d		 pop	 rbp
  00028	c3		 ret	 0
?__empty_global_delete@@YAXPEAX@Z ENDP			; __empty_global_delete
_TEXT	ENDS
END
