; Listing generated by Microsoft (R) Optimizing Compiler Version 19.38.33133.0 

include listing.inc

INCLUDELIB MSVCRTD
INCLUDELIB OLDNAMES

msvcjmc	SEGMENT
__FDCABEA5_Days Calculator@pch DB 01H
__6FB906AF_sequential_number_counting@cpp DB 01H
__130574F1_stdafx@h DB 01H
__29A091F7_stdafx@cpp DB 01H
msvcjmc	ENDS
PUBLIC	?__empty_global_delete@@YAXPEAX@Z		; __empty_global_delete
PUBLIC	?__empty_global_delete@@YAXPEAX_K@Z		; __empty_global_delete
PUBLIC	?SequentialNumberCounting@@YAHHH_N@Z		; SequentialNumberCounting
PUBLIC	__JustMyCode_Default
EXTRN	_RTC_CheckStackVars:PROC
EXTRN	_RTC_InitBase:PROC
EXTRN	_RTC_Shutdown:PROC
EXTRN	__CheckForDebuggerJustMyCode:PROC
;	COMDAT pdata
pdata	SEGMENT
$pdata$?__empty_global_delete@@YAXPEAX@Z DD imagerel $LN3
	DD	imagerel $LN3+41
	DD	imagerel $unwind$?__empty_global_delete@@YAXPEAX@Z
pdata	ENDS
;	COMDAT pdata
pdata	SEGMENT
$pdata$?__empty_global_delete@@YAXPEAX_K@Z DD imagerel $LN3
	DD	imagerel $LN3+46
	DD	imagerel $unwind$?__empty_global_delete@@YAXPEAX_K@Z
pdata	ENDS
;	COMDAT pdata
pdata	SEGMENT
$pdata$?SequentialNumberCounting@@YAHHH_N@Z DD imagerel $LN7
	DD	imagerel $LN7+293
	DD	imagerel $unwind$?SequentialNumberCounting@@YAHHH_N@Z
pdata	ENDS
;	COMDAT rtc$TMZ
rtc$TMZ	SEGMENT
_RTC_Shutdown.rtc$TMZ DQ FLAT:_RTC_Shutdown
rtc$TMZ	ENDS
;	COMDAT rtc$IMZ
rtc$IMZ	SEGMENT
_RTC_InitBase.rtc$IMZ DQ FLAT:_RTC_InitBase
rtc$IMZ	ENDS
;	COMDAT xdata
xdata	SEGMENT
$unwind$?SequentialNumberCounting@@YAHHH_N@Z DD 025053301H
	DD	0116231bH
	DD	0700f002fH
	DD	0500eH
xdata	ENDS
;	COMDAT CONST
CONST	SEGMENT
?SequentialNumberCounting@@YAHHH_N@Z$rtcName$0 DB 064H	; SequentialNumberCounting
	DB	061H
	DB	079H
	DB	073H
	DB	05fH
	DB	069H
	DB	06eH
	DB	05fH
	DB	06dH
	DB	06fH
	DB	06eH
	DB	074H
	DB	068H
	DB	00H
	ORG $+2
?SequentialNumberCounting@@YAHHH_N@Z$rtcVarDesc DD 028H	; SequentialNumberCounting
	DD	030H
	DQ	FLAT:?SequentialNumberCounting@@YAHHH_N@Z$rtcName$0
	ORG $+48
?SequentialNumberCounting@@YAHHH_N@Z$rtcFrameData DD 01H ; SequentialNumberCounting
	DD	00H
	DQ	FLAT:?SequentialNumberCounting@@YAHHH_N@Z$rtcVarDesc
CONST	ENDS
;	COMDAT xdata
xdata	SEGMENT
$unwind$?__empty_global_delete@@YAXPEAX_K@Z DD 025051801H
	DD	01132318H
	DD	0700c001dH
	DD	0500bH
xdata	ENDS
;	COMDAT xdata
xdata	SEGMENT
$unwind$?__empty_global_delete@@YAXPEAX@Z DD 025051301H
	DD	010e2313H
	DD	07007001dH
	DD	05006H
xdata	ENDS
; Function compile flags: /Odt
;	COMDAT __JustMyCode_Default
_TEXT	SEGMENT
__JustMyCode_Default PROC				; COMDAT
  00000	c2 00 00	 ret	 0
__JustMyCode_Default ENDP
_TEXT	ENDS
; Function compile flags: /Odtp /RTCsu /ZI
; File C:\Users\user\source\repos\CPO\CPO\sequential_number_counting.cpp
;	COMDAT ?SequentialNumberCounting@@YAHHH_N@Z
_TEXT	SEGMENT
days_in_month$ = 8
number_of_day$ = 84
i$4 = 116
day$ = 368
month$ = 376
definition$ = 384
?SequentialNumberCounting@@YAHHH_N@Z PROC		; SequentialNumberCounting, COMDAT

; 4    : int SequentialNumberCounting(int day, int month, bool definition) {

$LN7:
  00000	44 88 44 24 18	 mov	 BYTE PTR [rsp+24], r8b
  00005	89 54 24 10	 mov	 DWORD PTR [rsp+16], edx
  00009	89 4c 24 08	 mov	 DWORD PTR [rsp+8], ecx
  0000d	55		 push	 rbp
  0000e	57		 push	 rdi
  0000f	48 81 ec 78 01
	00 00		 sub	 rsp, 376		; 00000178H
  00016	48 8d 6c 24 20	 lea	 rbp, QWORD PTR [rsp+32]
  0001b	48 8d 7c 24 20	 lea	 rdi, QWORD PTR [rsp+32]
  00020	b9 26 00 00 00	 mov	 ecx, 38			; 00000026H
  00025	b8 cc cc cc cc	 mov	 eax, -858993460		; ccccccccH
  0002a	f3 ab		 rep stosd
  0002c	8b 8c 24 98 01
	00 00		 mov	 ecx, DWORD PTR [rsp+408]
  00033	48 8d 0d 00 00
	00 00		 lea	 rcx, OFFSET FLAT:__6FB906AF_sequential_number_counting@cpp
  0003a	e8 00 00 00 00	 call	 __CheckForDebuggerJustMyCode

; 5    : 	int days_in_month[12] =
; 6    : 	{31, 28, 31, 30, 31, 30, 31, 31, 30, 31, 30, 31};

  0003f	c7 45 08 1f 00
	00 00		 mov	 DWORD PTR days_in_month$[rbp], 31
  00046	c7 45 0c 1c 00
	00 00		 mov	 DWORD PTR days_in_month$[rbp+4], 28
  0004d	c7 45 10 1f 00
	00 00		 mov	 DWORD PTR days_in_month$[rbp+8], 31
  00054	c7 45 14 1e 00
	00 00		 mov	 DWORD PTR days_in_month$[rbp+12], 30
  0005b	c7 45 18 1f 00
	00 00		 mov	 DWORD PTR days_in_month$[rbp+16], 31
  00062	c7 45 1c 1e 00
	00 00		 mov	 DWORD PTR days_in_month$[rbp+20], 30
  00069	c7 45 20 1f 00
	00 00		 mov	 DWORD PTR days_in_month$[rbp+24], 31
  00070	c7 45 24 1f 00
	00 00		 mov	 DWORD PTR days_in_month$[rbp+28], 31
  00077	c7 45 28 1e 00
	00 00		 mov	 DWORD PTR days_in_month$[rbp+32], 30
  0007e	c7 45 2c 1f 00
	00 00		 mov	 DWORD PTR days_in_month$[rbp+36], 31
  00085	c7 45 30 1e 00
	00 00		 mov	 DWORD PTR days_in_month$[rbp+40], 30
  0008c	c7 45 34 1f 00
	00 00		 mov	 DWORD PTR days_in_month$[rbp+44], 31

; 7    : 	if (definition) {

  00093	0f b6 85 80 01
	00 00		 movzx	 eax, BYTE PTR definition$[rbp]
  0009a	85 c0		 test	 eax, eax
  0009c	74 1c		 je	 SHORT $LN5@Sequential

; 8    : 		days_in_month[1]++;

  0009e	b8 04 00 00 00	 mov	 eax, 4
  000a3	48 6b c0 01	 imul	 rax, rax, 1
  000a7	8b 44 05 08	 mov	 eax, DWORD PTR days_in_month$[rbp+rax]
  000ab	ff c0		 inc	 eax
  000ad	b9 04 00 00 00	 mov	 ecx, 4
  000b2	48 6b c9 01	 imul	 rcx, rcx, 1
  000b6	89 44 0d 08	 mov	 DWORD PTR days_in_month$[rbp+rcx], eax
$LN5@Sequential:

; 9    : 	}
; 10   : 	int number_of_day = 0;

  000ba	c7 45 54 00 00
	00 00		 mov	 DWORD PTR number_of_day$[rbp], 0

; 11   : 	for (int i = 1; i < month; i++) {

  000c1	c7 45 74 01 00
	00 00		 mov	 DWORD PTR i$4[rbp], 1
  000c8	eb 08		 jmp	 SHORT $LN4@Sequential
$LN2@Sequential:
  000ca	8b 45 74	 mov	 eax, DWORD PTR i$4[rbp]
  000cd	ff c0		 inc	 eax
  000cf	89 45 74	 mov	 DWORD PTR i$4[rbp], eax
$LN4@Sequential:
  000d2	8b 85 78 01 00
	00		 mov	 eax, DWORD PTR month$[rbp]
  000d8	39 45 74	 cmp	 DWORD PTR i$4[rbp], eax
  000db	7d 17		 jge	 SHORT $LN3@Sequential

; 12   : 		number_of_day += days_in_month[i - 1];

  000dd	8b 45 74	 mov	 eax, DWORD PTR i$4[rbp]
  000e0	ff c8		 dec	 eax
  000e2	48 98		 cdqe
  000e4	8b 44 85 08	 mov	 eax, DWORD PTR days_in_month$[rbp+rax*4]
  000e8	8b 4d 54	 mov	 ecx, DWORD PTR number_of_day$[rbp]
  000eb	03 c8		 add	 ecx, eax
  000ed	8b c1		 mov	 eax, ecx
  000ef	89 45 54	 mov	 DWORD PTR number_of_day$[rbp], eax

; 13   : 	}

  000f2	eb d6		 jmp	 SHORT $LN2@Sequential
$LN3@Sequential:

; 14   : 	number_of_day += day;

  000f4	8b 85 70 01 00
	00		 mov	 eax, DWORD PTR day$[rbp]
  000fa	8b 4d 54	 mov	 ecx, DWORD PTR number_of_day$[rbp]
  000fd	03 c8		 add	 ecx, eax
  000ff	8b c1		 mov	 eax, ecx
  00101	89 45 54	 mov	 DWORD PTR number_of_day$[rbp], eax

; 15   : 	return number_of_day;

  00104	8b 45 54	 mov	 eax, DWORD PTR number_of_day$[rbp]

; 16   : }

  00107	8b f8		 mov	 edi, eax
  00109	48 8d 4d e0	 lea	 rcx, QWORD PTR [rbp-32]
  0010d	48 8d 15 00 00
	00 00		 lea	 rdx, OFFSET FLAT:?SequentialNumberCounting@@YAHHH_N@Z$rtcFrameData
  00114	e8 00 00 00 00	 call	 _RTC_CheckStackVars
  00119	8b c7		 mov	 eax, edi
  0011b	48 8d a5 58 01
	00 00		 lea	 rsp, QWORD PTR [rbp+344]
  00122	5f		 pop	 rdi
  00123	5d		 pop	 rbp
  00124	c3		 ret	 0
?SequentialNumberCounting@@YAHHH_N@Z ENDP		; SequentialNumberCounting
_TEXT	ENDS
; Function compile flags: /Odtp /RTCsu /ZI
; File C:\Users\user\source\repos\CPO\CPO\sequential_number_counting.cpp
;	COMDAT ?__empty_global_delete@@YAXPEAX_K@Z
_TEXT	SEGMENT
__formal$ = 224
__formal$ = 232
?__empty_global_delete@@YAXPEAX_K@Z PROC		; __empty_global_delete, COMDAT

$LN3:
  00000	48 89 54 24 10	 mov	 QWORD PTR [rsp+16], rdx
  00005	48 89 4c 24 08	 mov	 QWORD PTR [rsp+8], rcx
  0000a	55		 push	 rbp
  0000b	57		 push	 rdi
  0000c	48 81 ec e8 00
	00 00		 sub	 rsp, 232		; 000000e8H
  00013	48 8d 6c 24 20	 lea	 rbp, QWORD PTR [rsp+32]
  00018	48 8d 0d 00 00
	00 00		 lea	 rcx, OFFSET FLAT:__6FB906AF_sequential_number_counting@cpp
  0001f	e8 00 00 00 00	 call	 __CheckForDebuggerJustMyCode
  00024	48 8d a5 c8 00
	00 00		 lea	 rsp, QWORD PTR [rbp+200]
  0002b	5f		 pop	 rdi
  0002c	5d		 pop	 rbp
  0002d	c3		 ret	 0
?__empty_global_delete@@YAXPEAX_K@Z ENDP		; __empty_global_delete
_TEXT	ENDS
; Function compile flags: /Odtp /RTCsu /ZI
; File C:\Users\user\source\repos\CPO\CPO\sequential_number_counting.cpp
;	COMDAT ?__empty_global_delete@@YAXPEAX@Z
_TEXT	SEGMENT
__formal$ = 224
?__empty_global_delete@@YAXPEAX@Z PROC			; __empty_global_delete, COMDAT

$LN3:
  00000	48 89 4c 24 08	 mov	 QWORD PTR [rsp+8], rcx
  00005	55		 push	 rbp
  00006	57		 push	 rdi
  00007	48 81 ec e8 00
	00 00		 sub	 rsp, 232		; 000000e8H
  0000e	48 8d 6c 24 20	 lea	 rbp, QWORD PTR [rsp+32]
  00013	48 8d 0d 00 00
	00 00		 lea	 rcx, OFFSET FLAT:__6FB906AF_sequential_number_counting@cpp
  0001a	e8 00 00 00 00	 call	 __CheckForDebuggerJustMyCode
  0001f	48 8d a5 c8 00
	00 00		 lea	 rsp, QWORD PTR [rbp+200]
  00026	5f		 pop	 rdi
  00027	5d		 pop	 rbp
  00028	c3		 ret	 0
?__empty_global_delete@@YAXPEAX@Z ENDP			; __empty_global_delete
_TEXT	ENDS
END
